; Function Attrs: nounwind uwtable
define ptr @l_Lake_Toml_litWithAntiquot(ptr noundef %0, ptr noundef %1, ptr noundef %2, ptr noundef %3, i8 noundef zeroext %4) local_unnamed_addr #1 {
  %6 = ptrtoint ptr %1 to i64
  %7 = and i64 %6, 1
  %.not = icmp eq i64 %7, 0
  br i1 %.not, label %8, label %lean_inc.exit

8:                                                ; preds = %5
  %.val.i = load i32, ptr %1, align 4, !tbaa !4
  %9 = icmp sgt i32 %.val.i, 0
  br i1 %9, label %10, label %12, !prof !9

10:                                               ; preds = %8
  %11 = add nuw i32 %.val.i, 1
  store i32 %11, ptr %1, align 4, !tbaa !4
  br label %lean_inc.exit

12:                                               ; preds = %8
  %.not.i = icmp eq i32 %.val.i, 0
  br i1 %.not.i, label %lean_inc.exit, label %13

13:                                               ; preds = %12
  tail call void @lean_inc_ref_cold(ptr noundef nonnull %1) #4
  br label %lean_inc.exit

lean_inc.exit:                                    ; preds = %13, %12, %10, %5
  %14 = tail call ptr @l_Lean_Parser_mkAntiquot(ptr noundef %0, ptr noundef %1, i8 noundef zeroext %4, i8 noundef zeroext 0) #4
  tail call void @lean_inc_heartbeat() #4
  %15 = tail call noalias ptr @mi_malloc_small(i64 noundef 48) #4
  %16 = icmp eq ptr %15, null
  br i1 %16, label %17, label %lean_alloc_closure.exit.i

17:                                               ; preds = %lean_inc.exit
  tail call void @lean_internal_panic_out_of_memory() #5
  unreachable

lean_alloc_closure.exit.i:                        ; preds = %lean_inc.exit
  %18 = getelementptr inbounds nuw i8, ptr %15, i64 4
  store i32 1, ptr %15, align 4, !tbaa !4
  store i32 -184549328, ptr %18, align 4
  %19 = getelementptr inbounds nuw i8, ptr %15, i64 8
  store ptr @l_Lake_Toml_lit___elambda__1, ptr %19, align 8, !tbaa !10
  %20 = getelementptr inbounds nuw i8, ptr %15, i64 16
  store i16 5, ptr %20, align 8, !tbaa !12
  %21 = getelementptr inbounds nuw i8, ptr %15, i64 18
  store i16 3, ptr %21, align 2, !tbaa !12
  %22 = getelementptr inbounds nuw i8, ptr %15, i64 24
  store ptr %1, ptr %22, align 8, !tbaa !10
  %23 = getelementptr inbounds nuw i8, ptr %15, i64 32
  store ptr %2, ptr %23, align 8, !tbaa !10
  %24 = getelementptr inbounds nuw i8, ptr %15, i64 40
  store ptr %3, ptr %24, align 8, !tbaa !10
  %25 = load ptr, ptr @l_Lake_Toml_atom___closed__2, align 8, !tbaa !10
  tail call void @lean_inc_heartbeat() #4
  %26 = tail call noalias ptr @mi_malloc_small(i64 noundef 24) #4
  %27 = icmp eq ptr %26, null
  br i1 %27, label %28, label %l_Lake_Toml_lit.exit

28:                                               ; preds = %lean_alloc_closure.exit.i
  tail call void @lean_internal_panic_out_of_memory() #5
  unreachable

l_Lake_Toml_lit.exit:                             ; preds = %lean_alloc_closure.exit.i
  %29 = getelementptr inbounds nuw i8, ptr %26, i64 4
  store i32 1, ptr %26, align 4, !tbaa !4
  store i32 131096, ptr %29, align 4
  %30 = getelementptr inbounds nuw i8, ptr %26, i64 8
  store ptr %25, ptr %30, align 8, !tbaa !10
  %31 = getelementptr inbounds nuw i8, ptr %26, i64 16
  store ptr %15, ptr %31, align 8, !tbaa !10
  %32 = tail call ptr @l_Lean_Parser_withAntiquot(ptr noundef %14, ptr noundef nonnull %26) #4
  ret ptr %32
}